; Function Attrs: mustprogress nofree nounwind willreturn memory(read, inaccessiblemem: none) uwtable
define dso_local noundef zeroext i1 @_Z22VtErasedProxyHoldsTypeRK18_ErasedDoubleProxyRKSt9type_info(ptr nocapture noundef nonnull readnone align 8 dereferenceable(24) %0, ptr nocapture noundef nonnull readonly align 8 dereferenceable(16) %1) local_unnamed_addr #5 {
  %3 = getelementptr inbounds nuw i8, ptr %1, i64 8
  %4 = load ptr, ptr %3, align 8
  %5 = load ptr, ptr getelementptr inbounds nuw (i8, ptr @_ZTId, i64 8), align 8
  %6 = icmp eq ptr %4, %5
  br i1 %6, label %_ZN32pxrInternal_v0_24__pxrReserved__17TfSafeTypeCompareERKSt9type_infoS2_.exit, label %7

7:                                                ; preds = %2
  %8 = load i8, ptr %4, align 1
  %.not.i.i = icmp eq i8 %8, 42
  br i1 %.not.i.i, label %_ZN32pxrInternal_v0_24__pxrReserved__17TfSafeTypeCompareERKSt9type_infoS2_.exit, label %9

9:                                                ; preds = %7
  %10 = load i8, ptr %5, align 1
  %11 = icmp eq i8 %10, 42
  %.idx.i.i.i = zext i1 %11 to i64
  %12 = getelementptr inbounds i8, ptr %5, i64 %.idx.i.i.i
  %13 = tail call i32 @strcmp(ptr noundef nonnull dereferenceable(1) %4, ptr noundef nonnull dereferenceable(1) %12) #28
  %14 = icmp eq i32 %13, 0
  br label %_ZN32pxrInternal_v0_24__pxrReserved__17TfSafeTypeCompareERKSt9type_infoS2_.exit

_ZN32pxrInternal_v0_24__pxrReserved__17TfSafeTypeCompareERKSt9type_infoS2_.exit: ; preds = %2, %7, %9
  %.0.i.i = phi i1 [ true, %2 ], [ false, %7 ], [ %14, %9 ]
  ret i1 %.0.i.i
}